target datalayout = "e-m:e-p270:32:32-p271:32:32-p272:64:64-i64:64-i128:128-f80:128-n8:16:32:64-S128"
target triple = "x86_64-pc-linux-gnu"

%struct.AVBPrint = type { ptr, i32, i32, i32, [1 x i8], [1000 x i8] }
%struct.AVRational = type { i32, i32 }
%struct.AVSubtitle = type { i16, i32, i32, i32, ptr, i64 }

@.str.78 = private unnamed_addr constant [7 x i8] c"format\00", align 1
@.str.275 = private unnamed_addr constant [9 x i8] c"subtitle\00", align 1
@.str.335 = private unnamed_addr constant [4 x i8] c"pts\00", align 1
@.str.336 = private unnamed_addr constant [9 x i8] c"pts_time\00", align 1
@stdout = external global ptr, align 8
@.str.442 = private unnamed_addr constant [11 x i8] c"media_type\00", align 1
@.str.443 = private unnamed_addr constant [19 x i8] c"start_display_time\00", align 1
@.str.444 = private unnamed_addr constant [17 x i8] c"end_display_time\00", align 1
@.str.445 = private unnamed_addr constant [10 x i8] c"num_rects\00", align 1

; Function Attrs: nounwind uwtable
define internal void @show_subtitle(ptr noundef %0, ptr noundef %1, ptr noundef %2, ptr noundef %3) #0 {
  %5 = alloca ptr, align 8
  %6 = alloca ptr, align 8
  %7 = alloca ptr, align 8
  %8 = alloca ptr, align 8
  %9 = alloca %struct.AVBPrint, align 8
  %10 = alloca %struct.AVRational, align 4
  store ptr %0, ptr %5, align 8, !tbaa !28
  store ptr %1, ptr %6, align 8, !tbaa !347
  store ptr %2, ptr %7, align 8, !tbaa !101
  store ptr %3, ptr %8, align 8, !tbaa !160
  call void @llvm.lifetime.start.p0(i64 1024, ptr %9) #14
  call void @av_bprint_init(ptr noundef %9, i32 noundef 1, i32 noundef -1)
  %11 = load ptr, ptr %5, align 8, !tbaa !28
  call void @avtext_print_section_header(ptr noundef %11, ptr noundef null, i32 noundef 65)
  %12 = load ptr, ptr %5, align 8, !tbaa !28
  %13 = call i32 @avtext_print_string(ptr noundef %12, ptr noundef @.str.442, ptr noundef @.str.275, i32 noundef 0)
  %14 = load ptr, ptr %5, align 8, !tbaa !28
  %15 = load ptr, ptr %6, align 8, !tbaa !347
  %16 = getelementptr inbounds nuw %struct.AVSubtitle, ptr %15, i32 0, i32 5
  %17 = load i64, ptr %16, align 8, !tbaa !349
  call void @avtext_print_ts(ptr noundef %14, ptr noundef @.str.335, i64 noundef %17, i32 noundef 0)
  %18 = load ptr, ptr %5, align 8, !tbaa !28
  %19 = load ptr, ptr %6, align 8, !tbaa !347
  %20 = getelementptr inbounds nuw %struct.AVSubtitle, ptr %19, i32 0, i32 5
  %21 = load i64, ptr %20, align 8, !tbaa !349
  %22 = getelementptr inbounds nuw %struct.AVRational, ptr %10, i32 0, i32 0
  store i32 1, ptr %22, align 4, !tbaa !143
  %23 = getelementptr inbounds nuw %struct.AVRational, ptr %10, i32 0, i32 1
  store i32 1000000, ptr %23, align 4, !tbaa !144
  call void @avtext_print_time(ptr noundef %18, ptr noundef @.str.336, i64 noundef %21, ptr noundef %10, i32 noundef 0)
  %24 = load ptr, ptr %5, align 8, !tbaa !28
  %25 = load ptr, ptr %6, align 8, !tbaa !347
  %26 = getelementptr inbounds nuw %struct.AVSubtitle, ptr %25, i32 0, i32 0
  %27 = load i16, ptr %26, align 8, !tbaa !352
  %28 = zext i16 %27 to i64
  call void @avtext_print_integer(ptr noundef %24, ptr noundef @.str.78, i64 noundef %28, i32 noundef 0)
  %29 = load ptr, ptr %5, align 8, !tbaa !28
  %30 = load ptr, ptr %6, align 8, !tbaa !347
  %31 = getelementptr inbounds nuw %struct.AVSubtitle, ptr %30, i32 0, i32 1
  %32 = load i32, ptr %31, align 4, !tbaa !353
  %33 = zext i32 %32 to i64
  call void @avtext_print_integer(ptr noundef %29, ptr noundef @.str.443, i64 noundef %33, i32 noundef 0)
  %34 = load ptr, ptr %5, align 8, !tbaa !28
  %35 = load ptr, ptr %6, align 8, !tbaa !347
  %36 = getelementptr inbounds nuw %struct.AVSubtitle, ptr %35, i32 0, i32 2
  %37 = load i32, ptr %36, align 8, !tbaa !354
  %38 = zext i32 %37 to i64
  call void @avtext_print_integer(ptr noundef %34, ptr noundef @.str.444, i64 noundef %38, i32 noundef 0)
  %39 = load ptr, ptr %5, align 8, !tbaa !28
  %40 = load ptr, ptr %6, align 8, !tbaa !347
  %41 = getelementptr inbounds nuw %struct.AVSubtitle, ptr %40, i32 0, i32 3
  %42 = load i32, ptr %41, align 4, !tbaa !355
  %43 = zext i32 %42 to i64
  call void @avtext_print_integer(ptr noundef %39, ptr noundef @.str.445, i64 noundef %43, i32 noundef 0)
  %44 = load ptr, ptr %5, align 8, !tbaa !28
  call void @avtext_print_section_footer(ptr noundef %44)
  %45 = call i32 @av_bprint_finalize(ptr noundef %9, ptr noundef null)
  %46 = load ptr, ptr @stdout, align 8, !tbaa !16
  %47 = call i32 @fflush(ptr noundef %46)
  call void @llvm.lifetime.end.p0(i64 1024, ptr %9) #14
  ret void
}