; Function Attrs: nounwind uwtable
define internal fastcc void @show_subtitle(ptr noundef %0, ptr noundef nonnull readonly captures(none) %1) unnamed_addr #0 {
  %3 = alloca %struct.AVBPrint, align 8
  %4 = alloca %struct.AVRational, align 4
  call void @llvm.lifetime.start.p0(i64 1024, ptr nonnull %3) #20
  call void @av_bprint_init(ptr noundef nonnull %3, i32 noundef 1, i32 noundef -1) #20
  call void @avtext_print_section_header(ptr noundef %0, ptr noundef null, i32 noundef 65) #20
  %5 = call i32 @avtext_print_string(ptr noundef %0, ptr noundef nonnull @.str.442, ptr noundef nonnull @.str.275, i32 noundef 0) #20
  %6 = getelementptr inbounds nuw i8, ptr %1, i64 24
  %7 = load i64, ptr %6, align 8, !tbaa !382
  call void @avtext_print_ts(ptr noundef %0, ptr noundef nonnull @.str.335, i64 noundef %7, i32 noundef 0) #20
  %8 = load i64, ptr %6, align 8, !tbaa !382
  store i32 1, ptr %4, align 4, !tbaa !267
  %9 = getelementptr inbounds nuw i8, ptr %4, i64 4
  store i32 1000000, ptr %9, align 4, !tbaa !268
  call void @avtext_print_time(ptr noundef %0, ptr noundef nonnull @.str.336, i64 noundef %8, ptr noundef nonnull %4, i32 noundef 0) #20
  %10 = load i16, ptr %1, align 8, !tbaa !385
  %11 = zext i16 %10 to i64
  call void @avtext_print_integer(ptr noundef %0, ptr noundef nonnull @.str.78, i64 noundef %11, i32 noundef 0) #20
  %12 = getelementptr inbounds nuw i8, ptr %1, i64 4
  %13 = load i32, ptr %12, align 4, !tbaa !386
  %14 = zext i32 %13 to i64
  call void @avtext_print_integer(ptr noundef %0, ptr noundef nonnull @.str.443, i64 noundef %14, i32 noundef 0) #20
  %15 = getelementptr inbounds nuw i8, ptr %1, i64 8
  %16 = load i32, ptr %15, align 8, !tbaa !387
  %17 = zext i32 %16 to i64
  call void @avtext_print_integer(ptr noundef %0, ptr noundef nonnull @.str.444, i64 noundef %17, i32 noundef 0) #20
  %18 = getelementptr inbounds nuw i8, ptr %1, i64 12
  %19 = load i32, ptr %18, align 4, !tbaa !388
  %20 = zext i32 %19 to i64
  call void @avtext_print_integer(ptr noundef %0, ptr noundef nonnull @.str.445, i64 noundef %20, i32 noundef 0) #20
  call void @avtext_print_section_footer(ptr noundef %0) #20
  %21 = call i32 @av_bprint_finalize(ptr noundef nonnull %3, ptr noundef null) #20
  %22 = load ptr, ptr @stdout, align 8, !tbaa !9
  %23 = call i32 @fflush(ptr noundef %22)
  call void @llvm.lifetime.end.p0(i64 1024, ptr nonnull %3) #20
  ret void
}